Certificate:
    Data:
        Version: 3 (0x2)
        Serial Number:
            8a:da:19:c8:96:2f:92:7f
        Signature Algorithm: sha1WithRSAEncryption
        Issuer: C=VE, ST=Distrito Capital, O=INCES, OU=Gerencia General de Informatica, CN=srv-pagos
        Validity
            Not Before: May  4 20:15:37 2012 GMT
            Not After : May  2 20:15:37 2022 GMT
        Subject: C=VE, ST=Distrito Capital, O=INCES, OU=Gerencia General de Informatica, CN=pagoclick.inces.gob.ve
        Subject Public Key Info:
            Public Key Algorithm: rsaEncryption
            RSA Public Key: (1024 bit)
                Modulus (1024 bit):
                    00:eb:bc:d8:87:81:47:9e:be:a3:e4:82:c8:04:9b:
                    47:25:7b:7b:bb:41:b8:00:0b:67:ac:f0:5f:33:cf:
                    ca:88:7d:0b:d5:ab:cc:89:ac:48:e7:cd:7f:92:10:
                    48:a4:2b:1e:dd:88:df:a5:62:7e:4c:41:35:60:6c:
                    33:10:b7:09:c6:90:67:76:62:f4:d1:3a:bf:36:d7:
                    5b:2c:fc:2c:81:3c:be:a3:ba:d8:70:58:56:d6:ac:
                    e7:5d:e7:51:99:8d:73:2c:3d:ab:5c:26:73:9d:c9:
                    ec:ce:42:3f:18:60:14:d6:58:1e:26:8c:03:22:be:
                    63:fe:41:b0:16:30:9b:18:69
                Exponent: 65537 (0x10001)
        X509v3 extensions:
            X509v3 Basic Constraints: 
                CA:FALSE
            Netscape Comment: 
                OpenSSL Generated Certificate
            X509v3 Subject Key Identifier: 
                66:11:E2:0E:77:88:BA:8E:0A:76:94:DE:3C:3D:CD:59:31:1D:93:6C
            X509v3 Authority Key Identifier: 
                keyid:65:21:22:88:3B:DC:A9:B5:A1:B4:7A:E3:53:16:AB:F9:4F:7F:C6:2F

    Signature Algorithm: sha1WithRSAEncryption
        6a:47:9d:19:8e:05:05:e9:bb:f7:35:66:0a:bc:09:fa:34:92:
        0a:34:7a:f1:aa:ec:ba:4a:27:56:28:6c:69:27:a5:82:6d:15:
        68:9c:a4:23:b2:57:06:3c:29:e3:36:15:2b:61:4e:51:1d:2b:
        ef:79:a1:64:3e:b4:6b:aa:dd:01:9d:0b:03:0b:57:27:2b:c0:
        f3:62:fb:f7:23:90:12:14:b5:9c:dd:93:00:23:7e:ea:14:03:
        f2:c9:66:bb:d9:d1:48:1d:34:d2:81:45:b1:d3:e6:e9:16:1c:
        bb:95:a6:9e:31:60:e5:4a:18:47:b2:5f:2e:fc:17:f7:3e:17:
        90:fb
-----BEGIN CERTIFICATE-----
MIIC8zCCAlygAwIBAgIJAIraGciWL5J/MA0GCSqGSIb3DQEBBQUAMHYxCzAJBgNV
BAYTAlZFMRkwFwYDVQQIExBEaXN0cml0byBDYXBpdGFsMQ4wDAYDVQQKEwVJTkNF
UzEoMCYGA1UECxMfR2VyZW5jaWEgR2VuZXJhbCBkZSBJbmZvcm1hdGljYTESMBAG
A1UEAxMJc3J2LXBhZ29zMB4XDTEyMDUwNDIwMTUzN1oXDTIyMDUwMjIwMTUzN1ow
gYMxCzAJBgNVBAYTAlZFMRkwFwYDVQQIExBEaXN0cml0byBDYXBpdGFsMQ4wDAYD
VQQKEwVJTkNFUzEoMCYGA1UECxMfR2VyZW5jaWEgR2VuZXJhbCBkZSBJbmZvcm1h
dGljYTEfMB0GA1UEAxMWcGFnb2NsaWNrLmluY2VzLmdvYi52ZTCBnzANBgkqhkiG
9w0BAQEFAAOBjQAwgYkCgYEA67zYh4FHnr6j5ILIBJtHJXt7u0G4AAtnrPBfM8/K
iH0L1avMiaxI581/khBIpCse3YjfpWJ+TEE1YGwzELcJxpBndmL00Tq/NtdbLPws
gTy+o7rYcFhW1qznXedRmY1zLD2rXCZzncnszkI/GGAU1lgeJowDIr5j/kGwFjCb
GGkCAwEAAaN7MHkwCQYDVR0TBAIwADAsBglghkgBhvhCAQ0EHxYdT3BlblNTTCBH
ZW5lcmF0ZWQgQ2VydGlmaWNhdGUwHQYDVR0OBBYEFGYR4g53iLqOCnaU3jw9zVkx
HZNsMB8GA1UdIwQYMBaAFGUhIog73Km1obR641MWq/lPf8YvMA0GCSqGSIb3DQEB
BQUAA4GBAGpHnRmOBQXpu/c1Zgq8Cfo0kgo0evGq7LpKJ1YobGknpYJtFWicpCOy
VwY8KeM2FSthTlEdK+95oWQ+tGuq3QGdCwMLVycrwPNi+/cjkBIUtZzdkwAjfuoU
A/LJZrvZ0UgdNNKBRbHT5ukWHLuVpp4xYOVKGEeyXy78F/c+F5D7
-----END CERTIFICATE-----
